target datalayout = "e-m:e-p270:32:32-p271:32:32-p272:64:64-i64:64-i128:128-f80:128-n8:16:32:64-S128"
target triple = "x86_64-unknown-linux-gnu"

%struct.fake_open = type { ptr, ptr, ptr }
%union.pthread_mutex_t = type { %struct.__pthread_mutex_s }
%struct.__pthread_mutex_s = type { i32, i32, i32, i32, i32, i16, i16, %struct.__pthread_internal_list }
%struct.__pthread_internal_list = type { ptr, ptr }
%struct.QTailQLink = type { ptr, ptr }
%struct.QemuMutex = type { %union.pthread_mutex_t, i8 }
%struct.CPUState = type { %struct.DeviceState, ptr, i32, i32, ptr, i32, i8, i8, ptr, i8, i8, i8, i8, i8, i8, i8, i8, i32, i32, i32, i32, i64, i64, i64, [1 x %struct.__jmp_buf_tag], %struct.QemuMutex, %struct.anon.5, ptr, i32, ptr, ptr, ptr, ptr, i32, i32, %union.anon.6, %union.anon.7, %union.anon.8, ptr, ptr, i64, i32, ptr, ptr, ptr, i32, i64, i32, %struct.QemuLockCnt, [1 x i64], ptr, i32, i32, i32, i32, i32, ptr, i8, i8, i64, i8, i8, ptr, [8 x i8], [0 x i8], %struct.CPUNegativeOffsetState }
%struct.DeviceState = type { %struct.Object, ptr, ptr, i8, i8, i64, ptr, i32, i8, ptr, %struct.NamedGPIOListHead, %struct.NamedClockListHead, %struct.BusStateHead, i32, i32, i32, %struct.ResettableState, ptr, %struct.MemReentrancyGuard }
%struct.Object = type { ptr, ptr, ptr, i32, ptr }
%struct.NamedGPIOListHead = type { ptr }
%struct.NamedClockListHead = type { ptr }
%struct.BusStateHead = type { ptr }
%struct.ResettableState = type { i32, i8, i8 }
%struct.MemReentrancyGuard = type { i8 }
%struct.__jmp_buf_tag = type { [8 x i64], i32, %struct.__sigset_t }
%struct.__sigset_t = type { [16 x i64] }
%struct.anon.5 = type { ptr, ptr }
%union.anon.6 = type { %struct.QTailQLink }
%union.anon.7 = type { %struct.QTailQLink }
%union.anon.8 = type { %struct.QTailQLink }
%struct.QemuLockCnt = type { i32 }
%struct.CPUNegativeOffsetState = type { %struct.CPUTLB, %union.IcountDecr, i8, [11 x i8] }
%struct.CPUTLB = type { %struct.CPUTLBCommon, [16 x %struct.CPUTLBDesc], [16 x %struct.CPUTLBDescFast] }
%struct.CPUTLBCommon = type { %struct.QemuSpin, i16, i64, i64, i64 }
%struct.QemuSpin = type { i32 }
%struct.CPUTLBDesc = type { i64, i64, i64, i64, i64, i64, [8 x %union.CPUTLBEntry], [8 x %struct.CPUTLBEntryFull], ptr }
%union.CPUTLBEntry = type { %struct.anon.9 }
%struct.anon.9 = type { i64, i64, i64, i64 }
%struct.CPUTLBEntryFull = type { i64, i64, %struct.MemTxAttrs, i8, i8, [3 x i8], %union.anon.10 }
%struct.MemTxAttrs = type { i32 }
%union.anon.10 = type { %struct.anon.11 }
%struct.anon.11 = type { i8, i8, i8 }
%struct.CPUTLBDescFast = type { i64, ptr }
%union.IcountDecr = type { i32 }
%struct.TaskState = type { i32, i32, i64, i64, i64, i64, i32, ptr, ptr, %struct.emulated_sigtable, [64 x %struct.emulated_sigtable], %struct.__sigset_t, %struct.__sigset_t, i32, i32, %struct.target_sigaltstack, i64 }
%struct.emulated_sigtable = type { i32, %struct.target_siginfo }
%struct.target_siginfo = type { i32, i32, i32, %union.anon }
%union.anon = type { %struct.anon.2, [80 x i8] }
%struct.anon.2 = type { i32, i32, i32, i64, i64 }
%struct.target_sigaltstack = type { i64, i32, i64 }

@.str.572 = private unnamed_addr constant [7 x i8] c"/proc/\00", align 1
@.str.573 = private unnamed_addr constant [4 x i8] c"exe\00", align 1
@exec_path = external global ptr, align 8
@.str.574 = private unnamed_addr constant [10 x i8] c"qemu-open\00", align 1
@.str.575 = private unnamed_addr constant [7 x i8] c"TMPDIR\00", align 1
@.str.576 = private unnamed_addr constant [5 x i8] c"/tmp\00", align 1
@.str.577 = private unnamed_addr constant [20 x i8] c"%s/qemu-open.XXXXXX\00", align 1
@thread_cpu = external thread_local global ptr, align 8

; Function Attrs: nounwind sspstrong uwtable
define internal void @g_autoptr_cleanup_generic_gfree(ptr noundef %p) #0 {
entry:
  %p.addr = alloca ptr, align 8
  %pp = alloca ptr, align 8
  store ptr %p, ptr %p.addr, align 8
  %0 = load ptr, ptr %p.addr, align 8
  store ptr %0, ptr %pp, align 8
  %1 = load ptr, ptr %pp, align 8
  %2 = load ptr, ptr %1, align 8
  call void @g_free(ptr noundef %2)
  ret void
}

; Function Attrs: nounwind sspstrong uwtable
define internal i32 @safe_openat(i32 noundef %dirfd, ptr noundef %pathname, i32 noundef %flags, i32 noundef %mode) #0 {
entry:
  %dirfd.addr = alloca i32, align 4
  %pathname.addr = alloca ptr, align 8
  %flags.addr = alloca i32, align 4
  %mode.addr = alloca i32, align 4
  store i32 %dirfd, ptr %dirfd.addr, align 4
  store ptr %pathname, ptr %pathname.addr, align 8
  store i32 %flags, ptr %flags.addr, align 4
  store i32 %mode, ptr %mode.addr, align 4
  %0 = call align 8 ptr @llvm.threadlocal.address.p0(ptr align 8 @thread_cpu)
  %1 = load ptr, ptr %0, align 8
  %opaque = getelementptr inbounds %struct.CPUState, ptr %1, i32 0, i32 39
  %2 = load ptr, ptr %opaque, align 16
  %signal_pending = getelementptr inbounds %struct.TaskState, ptr %2, i32 0, i32 14
  %3 = load i32, ptr %dirfd.addr, align 4
  %4 = load ptr, ptr %pathname.addr, align 8
  %5 = load i32, ptr %flags.addr, align 4
  %6 = load i32, ptr %mode.addr, align 4
  %call = call i64 (ptr, i64, ...) @safe_syscall_base(ptr noundef %signal_pending, i64 noundef 257, i32 noundef %3, ptr noundef %4, i32 noundef %5, i32 noundef %6)
  %conv = trunc i64 %call to i32
  ret i32 %conv
}

; Function Attrs: nounwind sspstrong uwtable
define dso_local i32 @do_guest_openat(ptr noundef %cpu_env, i32 noundef %dirfd, ptr noundef %fname, i32 noundef %flags, i32 noundef %mode, i1 noundef zeroext %safe) #0 {
entry:
  %retval = alloca i32, align 4
  %cpu_env.addr = alloca ptr, align 8
  %dirfd.addr = alloca i32, align 4
  %fname.addr = alloca ptr, align 8
  %flags.addr = alloca i32, align 4
  %mode.addr = alloca i32, align 4
  %safe.addr = alloca i8, align 1
  %proc_name = alloca ptr, align 8
  %pathname = alloca ptr, align 8
  %fake_open = alloca ptr, align 8
  %cleanup.dest.slot = alloca i32, align 4
  %tmpdir = alloca ptr, align 8
  %filename21 = alloca [4096 x i8], align 16
  %fd = alloca i32, align 4
  %r = alloca i32, align 4
  %e = alloca i32, align 4
  store ptr %cpu_env, ptr %cpu_env.addr, align 8
  store i32 %dirfd, ptr %dirfd.addr, align 4
  store ptr %fname, ptr %fname.addr, align 8
  store i32 %flags, ptr %flags.addr, align 4
  store i32 %mode, ptr %mode.addr, align 4
  %frombool = zext i1 %safe to i8
  store i8 %frombool, ptr %safe.addr, align 1
  store ptr null, ptr %proc_name, align 8
  %0 = load ptr, ptr %fname.addr, align 8
  %call = call ptr @realpath(ptr noundef %0, ptr noundef null) #14
  store ptr %call, ptr %proc_name, align 8
  %1 = load ptr, ptr %proc_name, align 8
  %tobool = icmp ne ptr %1, null
  br i1 %tobool, label %land.lhs.true, label %if.else

land.lhs.true:                                    ; preds = %entry
  %2 = load ptr, ptr %proc_name, align 8
  %call1 = call i32 @strncmp(ptr noundef %2, ptr noundef @.str.572, i64 noundef 6) #18
  %cmp = icmp eq i32 %call1, 0
  br i1 %cmp, label %if.then, label %if.else

if.then:                                          ; preds = %land.lhs.true
  %3 = load ptr, ptr %proc_name, align 8
  store ptr %3, ptr %pathname, align 8
  br label %if.end

if.else:                                          ; preds = %land.lhs.true, %entry
  %4 = load ptr, ptr %fname.addr, align 8
  store ptr %4, ptr %pathname, align 8
  br label %if.end

if.end:                                           ; preds = %if.else, %if.then
  %5 = load ptr, ptr %pathname, align 8
  %call2 = call i32 @is_proc_myself(ptr noundef %5, ptr noundef @.str.573)
  %tobool3 = icmp ne i32 %call2, 0
  br i1 %tobool3, label %if.then4, label %if.end10

if.then4:                                         ; preds = %if.end
  %6 = load i8, ptr %safe.addr, align 1
  %tobool5 = trunc i8 %6 to i1
  br i1 %tobool5, label %if.then6, label %if.else8

if.then6:                                         ; preds = %if.then4
  %7 = load i32, ptr %dirfd.addr, align 4
  %8 = load ptr, ptr @exec_path, align 8
  %9 = load i32, ptr %flags.addr, align 4
  %10 = load i32, ptr %mode.addr, align 4
  %call7 = call i32 @safe_openat(i32 noundef %7, ptr noundef %8, i32 noundef %9, i32 noundef %10)
  store i32 %call7, ptr %retval, align 4
  store i32 1, ptr %cleanup.dest.slot, align 4
  br label %cleanup

if.else8:                                         ; preds = %if.then4
  %11 = load i32, ptr %dirfd.addr, align 4
  %12 = load ptr, ptr @exec_path, align 8
  %13 = load i32, ptr %flags.addr, align 4
  %14 = load i32, ptr %mode.addr, align 4
  %call9 = call i32 (i32, ptr, i32, ...) @openat64(i32 noundef %11, ptr noundef %12, i32 noundef %13, i32 noundef %14)
  store i32 %call9, ptr %retval, align 4
  store i32 1, ptr %cleanup.dest.slot, align 4
  br label %cleanup

if.end10:                                         ; preds = %if.end
  store ptr @do_guest_openat.fakes, ptr %fake_open, align 8
  br label %for.cond

for.cond:                                         ; preds = %for.inc, %if.end10
  %15 = load ptr, ptr %fake_open, align 8
  %filename = getelementptr inbounds %struct.fake_open, ptr %15, i32 0, i32 0
  %16 = load ptr, ptr %filename, align 8
  %tobool11 = icmp ne ptr %16, null
  br i1 %tobool11, label %for.body, label %for.end

for.body:                                         ; preds = %for.cond
  %17 = load ptr, ptr %fake_open, align 8
  %cmp12 = getelementptr inbounds %struct.fake_open, ptr %17, i32 0, i32 2
  %18 = load ptr, ptr %cmp12, align 8
  %19 = load ptr, ptr %pathname, align 8
  %20 = load ptr, ptr %fake_open, align 8
  %filename13 = getelementptr inbounds %struct.fake_open, ptr %20, i32 0, i32 0
  %21 = load ptr, ptr %filename13, align 8
  %call14 = call i32 %18(ptr noundef %19, ptr noundef %21)
  %tobool15 = icmp ne i32 %call14, 0
  br i1 %tobool15, label %if.then16, label %if.end17

if.then16:                                        ; preds = %for.body
  br label %for.end

if.end17:                                         ; preds = %for.body
  br label %for.inc

for.inc:                                          ; preds = %if.end17
  %22 = load ptr, ptr %fake_open, align 8
  %incdec.ptr = getelementptr %struct.fake_open, ptr %22, i32 1
  store ptr %incdec.ptr, ptr %fake_open, align 8
  br label %for.cond, !llvm.loop !13

for.end:                                          ; preds = %if.then16, %for.cond
  %23 = load ptr, ptr %fake_open, align 8
  %filename18 = getelementptr inbounds %struct.fake_open, ptr %23, i32 0, i32 0
  %24 = load ptr, ptr %filename18, align 8
  %tobool19 = icmp ne ptr %24, null
  br i1 %tobool19, label %if.then20, label %if.end50

if.then20:                                        ; preds = %for.end
  %call22 = call i32 @memfd_create(ptr noundef @.str.574, i32 noundef 0) #14
  store i32 %call22, ptr %fd, align 4
  %25 = load i32, ptr %fd, align 4
  %cmp23 = icmp slt i32 %25, 0
  br i1 %cmp23, label %if.then24, label %if.end41

if.then24:                                        ; preds = %if.then20
  %call25 = call ptr @__errno_location() #13
  %26 = load i32, ptr %call25, align 4
  %cmp26 = icmp ne i32 %26, 38
  br i1 %cmp26, label %if.then27, label %if.end28

if.then27:                                        ; preds = %if.then24
  %27 = load i32, ptr %fd, align 4
  store i32 %27, ptr %retval, align 4
  store i32 1, ptr %cleanup.dest.slot, align 4
  br label %cleanup

if.end28:                                         ; preds = %if.then24
  %call29 = call ptr @getenv(ptr noundef @.str.575) #14
  store ptr %call29, ptr %tmpdir, align 8
  %28 = load ptr, ptr %tmpdir, align 8
  %tobool30 = icmp ne ptr %28, null
  br i1 %tobool30, label %if.end32, label %if.then31

if.then31:                                        ; preds = %if.end28
  store ptr @.str.576, ptr %tmpdir, align 8
  br label %if.end32

if.end32:                                         ; preds = %if.then31, %if.end28
  %arraydecay = getelementptr inbounds [4096 x i8], ptr %filename21, i64 0, i64 0
  %29 = load ptr, ptr %tmpdir, align 8
  %call33 = call i32 (ptr, i64, ptr, ...) @snprintf(ptr noundef %arraydecay, i64 noundef 4096, ptr noundef @.str.577, ptr noundef %29) #14
  %arraydecay34 = getelementptr inbounds [4096 x i8], ptr %filename21, i64 0, i64 0
  %call35 = call i32 @mkstemp64(ptr noundef %arraydecay34)
  store i32 %call35, ptr %fd, align 4
  %30 = load i32, ptr %fd, align 4
  %cmp36 = icmp slt i32 %30, 0
  br i1 %cmp36, label %if.then37, label %if.end38

if.then37:                                        ; preds = %if.end32
  %31 = load i32, ptr %fd, align 4
  store i32 %31, ptr %retval, align 4
  store i32 1, ptr %cleanup.dest.slot, align 4
  br label %cleanup

if.end38:                                         ; preds = %if.end32
  %arraydecay39 = getelementptr inbounds [4096 x i8], ptr %filename21, i64 0, i64 0
  %call40 = call i32 @unlink(ptr noundef %arraydecay39) #14
  br label %if.end41

if.end41:                                         ; preds = %if.end38, %if.then20
  %32 = load ptr, ptr %fake_open, align 8
  %fill = getelementptr inbounds %struct.fake_open, ptr %32, i32 0, i32 1
  %33 = load ptr, ptr %fill, align 8
  %34 = load ptr, ptr %cpu_env.addr, align 8
  %35 = load i32, ptr %fd, align 4
  %call42 = call i32 %33(ptr noundef %34, i32 noundef %35)
  store i32 %call42, ptr %r, align 4
  %tobool43 = icmp ne i32 %call42, 0
  br i1 %tobool43, label %if.then44, label %if.end48

if.then44:                                        ; preds = %if.end41
  %call45 = call ptr @__errno_location() #13
  %36 = load i32, ptr %call45, align 4
  store i32 %36, ptr %e, align 4
  %37 = load i32, ptr %fd, align 4
  %call46 = call i32 @close(i32 noundef %37)
  %38 = load i32, ptr %e, align 4
  %call47 = call ptr @__errno_location() #13
  store i32 %38, ptr %call47, align 4
  %39 = load i32, ptr %r, align 4
  store i32 %39, ptr %retval, align 4
  store i32 1, ptr %cleanup.dest.slot, align 4
  br label %cleanup

if.end48:                                         ; preds = %if.end41
  %40 = load i32, ptr %fd, align 4
  %call49 = call i64 @lseek64(i32 noundef %40, i64 noundef 0, i32 noundef 0) #14
  %41 = load i32, ptr %fd, align 4
  store i32 %41, ptr %retval, align 4
  store i32 1, ptr %cleanup.dest.slot, align 4
  br label %cleanup

if.end50:                                         ; preds = %for.end
  %42 = load i8, ptr %safe.addr, align 1
  %tobool51 = trunc i8 %42 to i1
  br i1 %tobool51, label %if.then52, label %if.else55

if.then52:                                        ; preds = %if.end50
  %43 = load i32, ptr %dirfd.addr, align 4
  %44 = load ptr, ptr %pathname, align 8
  %call53 = call ptr @path(ptr noundef %44)
  %45 = load i32, ptr %flags.addr, align 4
  %46 = load i32, ptr %mode.addr, align 4
  %call54 = call i32 @safe_openat(i32 noundef %43, ptr noundef %call53, i32 noundef %45, i32 noundef %46)
  store i32 %call54, ptr %retval, align 4
  store i32 1, ptr %cleanup.dest.slot, align 4
  br label %cleanup

if.else55:                                        ; preds = %if.end50
  %47 = load i32, ptr %dirfd.addr, align 4
  %48 = load ptr, ptr %pathname, align 8
  %call56 = call ptr @path(ptr noundef %48)
  %49 = load i32, ptr %flags.addr, align 4
  %50 = load i32, ptr %mode.addr, align 4
  %call57 = call i32 (i32, ptr, i32, ...) @openat64(i32 noundef %47, ptr noundef %call56, i32 noundef %49, i32 noundef %50)
  store i32 %call57, ptr %retval, align 4
  store i32 1, ptr %cleanup.dest.slot, align 4
  br label %cleanup

cleanup:                                          ; preds = %if.else55, %if.then52, %if.end48, %if.then44, %if.then37, %if.then27, %if.else8, %if.then6
  call void @g_autoptr_cleanup_generic_gfree(ptr noundef %proc_name)
  %51 = load i32, ptr %retval, align 4
  ret i32 %51
}