; Function Attrs: nounwind sspstrong uwtable
define dso_local i32 @do_guest_openat(ptr noundef %cpu_env, i32 noundef %dirfd, ptr noundef %fname, i32 noundef %flags, i32 noundef %mode, i1 noundef zeroext %safe) local_unnamed_addr #2 {
entry:
  %filename21 = alloca [4096 x i8], align 16
  %call = tail call ptr @realpath(ptr noundef %fname, ptr noundef null) #27
  %tobool.not = icmp eq ptr %call, null
  br i1 %tobool.not, label %if.else, label %land.lhs.true

land.lhs.true:                                    ; preds = %entry
  %call1 = tail call i32 @strncmp(ptr noundef nonnull dereferenceable(1) %call, ptr noundef nonnull dereferenceable(7) @.str.572, i64 noundef 6) #31
  %cmp = icmp eq i32 %call1, 0
  br i1 %cmp, label %if.end, label %if.else

if.else:                                          ; preds = %land.lhs.true, %entry
  br label %if.end

if.end:                                           ; preds = %land.lhs.true, %if.else
  %pathname.0 = phi ptr [ %fname, %if.else ], [ %call, %land.lhs.true ]
  %call2 = tail call i32 @is_proc_myself(ptr noundef %pathname.0, ptr noundef nonnull @.str.573)
  %tobool3.not = icmp eq i32 %call2, 0
  br i1 %tobool3.not, label %for.body, label %if.then4

if.then4:                                         ; preds = %if.end
  %0 = load ptr, ptr @exec_path, align 8
  br i1 %safe, label %if.then6, label %if.else8

if.then6:                                         ; preds = %if.then4
  %1 = tail call align 8 ptr @llvm.threadlocal.address.p0(ptr align 8 @thread_cpu)
  %2 = load ptr, ptr %1, align 8
  %opaque.i = getelementptr inbounds nuw i8, ptr %2, i64 624
  %3 = load ptr, ptr %opaque.i, align 16
  %signal_pending.i = getelementptr inbounds nuw i8, ptr %3, i64 9164
  %call.i = tail call i64 (ptr, i64, ...) @safe_syscall_base(ptr noundef nonnull %signal_pending.i, i64 noundef 257, i32 noundef %dirfd, ptr noundef %0, i32 noundef %flags, i32 noundef %mode) #27
  %conv.i = trunc i64 %call.i to i32
  br label %cleanup

if.else8:                                         ; preds = %if.then4
  %call9 = tail call i32 (i32, ptr, i32, ...) @openat64(i32 noundef %dirfd, ptr noundef %0, i32 noundef %flags, i32 noundef %mode) #27
  br label %cleanup

for.body:                                         ; preds = %if.end, %for.inc
  %4 = phi ptr [ %6, %for.inc ], [ @.str.566, %if.end ]
  %fake_open.033 = phi ptr [ %incdec.ptr, %for.inc ], [ @do_guest_openat.fakes, %if.end ]
  %cmp12 = getelementptr inbounds nuw i8, ptr %fake_open.033, i64 16
  %5 = load ptr, ptr %cmp12, align 8
  %call14 = tail call i32 %5(ptr noundef %pathname.0, ptr noundef nonnull %4) #27
  %tobool15.not = icmp eq i32 %call14, 0
  br i1 %tobool15.not, label %for.inc, label %if.then20

for.inc:                                          ; preds = %for.body
  %incdec.ptr = getelementptr i8, ptr %fake_open.033, i64 24
  %6 = load ptr, ptr %incdec.ptr, align 8
  %tobool11.not = icmp eq ptr %6, null
  br i1 %tobool11.not, label %if.end50, label %for.body, !llvm.loop !13

if.then20:                                        ; preds = %for.body
  %call22 = tail call i32 @memfd_create(ptr noundef nonnull @.str.574, i32 noundef 0) #27
  %cmp23 = icmp slt i32 %call22, 0
  br i1 %cmp23, label %if.then24, label %if.end41

if.then24:                                        ; preds = %if.then20
  %call25 = tail call ptr @__errno_location() #26
  %7 = load i32, ptr %call25, align 4
  %cmp26.not = icmp eq i32 %7, 38
  br i1 %cmp26.not, label %if.end28, label %cleanup

if.end28:                                         ; preds = %if.then24
  %call29 = tail call ptr @getenv(ptr noundef nonnull @.str.575) #27
  %tobool30.not = icmp eq ptr %call29, null
  %spec.store.select = select i1 %tobool30.not, ptr @.str.576, ptr %call29
  %call33 = call i32 (ptr, i64, ptr, ...) @snprintf(ptr noundef nonnull dereferenceable(1) %filename21, i64 noundef 4096, ptr noundef nonnull @.str.577, ptr noundef nonnull %spec.store.select) #27
  %call35 = call i32 @mkstemp64(ptr noundef nonnull %filename21) #27
  %cmp36 = icmp slt i32 %call35, 0
  br i1 %cmp36, label %cleanup, label %if.end38

if.end38:                                         ; preds = %if.end28
  %call40 = call i32 @unlink(ptr noundef nonnull %filename21) #27
  br label %if.end41

if.end41:                                         ; preds = %if.end38, %if.then20
  %fd.0 = phi i32 [ %call35, %if.end38 ], [ %call22, %if.then20 ]
  %fill = getelementptr inbounds nuw i8, ptr %fake_open.033, i64 8
  %8 = load ptr, ptr %fill, align 8
  %call42 = call i32 %8(ptr noundef %cpu_env, i32 noundef %fd.0) #27
  %tobool43.not = icmp eq i32 %call42, 0
  br i1 %tobool43.not, label %if.end48, label %if.then44

if.then44:                                        ; preds = %if.end41
  %call45 = tail call ptr @__errno_location() #26
  %9 = load i32, ptr %call45, align 4
  %call46 = call i32 @close(i32 noundef %fd.0) #27
  store i32 %9, ptr %call45, align 4
  br label %cleanup

if.end48:                                         ; preds = %if.end41
  %call49 = call i64 @lseek64(i32 noundef %fd.0, i64 noundef 0, i32 noundef 0) #27
  br label %cleanup

if.end50:                                         ; preds = %for.inc
  %call53 = tail call ptr @path(ptr noundef %pathname.0) #27
  br i1 %safe, label %if.then52, label %if.else55

if.then52:                                        ; preds = %if.end50
  %10 = tail call align 8 ptr @llvm.threadlocal.address.p0(ptr align 8 @thread_cpu)
  %11 = load ptr, ptr %10, align 8
  %opaque.i28 = getelementptr inbounds nuw i8, ptr %11, i64 624
  %12 = load ptr, ptr %opaque.i28, align 16
  %signal_pending.i29 = getelementptr inbounds nuw i8, ptr %12, i64 9164
  %call.i30 = tail call i64 (ptr, i64, ...) @safe_syscall_base(ptr noundef nonnull %signal_pending.i29, i64 noundef 257, i32 noundef %dirfd, ptr noundef %call53, i32 noundef %flags, i32 noundef %mode) #27
  %conv.i31 = trunc i64 %call.i30 to i32
  br label %cleanup

if.else55:                                        ; preds = %if.end50
  %call57 = tail call i32 (i32, ptr, i32, ...) @openat64(i32 noundef %dirfd, ptr noundef %call53, i32 noundef %flags, i32 noundef %mode) #27
  br label %cleanup

cleanup:                                          ; preds = %if.end28, %if.then24, %if.else55, %if.then52, %if.end48, %if.then44, %if.else8, %if.then6
  %retval.0 = phi i32 [ %conv.i, %if.then6 ], [ %call9, %if.else8 ], [ %call42, %if.then44 ], [ %fd.0, %if.end48 ], [ %conv.i31, %if.then52 ], [ %call57, %if.else55 ], [ %call22, %if.then24 ], [ %call35, %if.end28 ]
  call void @g_free(ptr noundef %call) #27
  ret i32 %retval.0
}